; Function Attrs: mustprogress uwtable
define void @_ZN6google8protobuf2io9Tokenizer18ConsumeLineCommentEPNSt7__cxx1112basic_stringIcSt11char_traitsIcESaIcEEE(ptr noundef nonnull align 8 dereferenceable(192) %this, ptr noundef %content) local_unnamed_addr #6 align 2 {
entry:
  %cmp.not = icmp eq ptr %content, null
  br i1 %cmp.not, label %if.end, label %if.then

if.then:                                          ; preds = %entry
  %record_target_.i = getelementptr inbounds nuw i8, ptr %this, i64 168
  store ptr %content, ptr %record_target_.i, align 8
  %buffer_pos_.i = getelementptr inbounds nuw i8, ptr %this, i64 148
  %0 = load i32, ptr %buffer_pos_.i, align 4
  %record_start_.i = getelementptr inbounds nuw i8, ptr %this, i64 176
  store i32 %0, ptr %record_start_.i, align 8
  br label %if.end

if.end:                                           ; preds = %if.then, %entry
  %current_char_ = getelementptr inbounds nuw i8, ptr %this, i64 128
  br label %while.cond

while.cond:                                       ; preds = %while.body, %if.end
  %1 = load i8, ptr %current_char_, align 8
  switch i8 %1, label %while.body [
    i8 10, label %if.then.i
    i8 0, label %_ZN6google8protobuf2io9Tokenizer10TryConsumeEc.exit
  ]

while.body:                                       ; preds = %while.cond
  tail call void @_ZN6google8protobuf2io9Tokenizer8NextCharEv(ptr noundef nonnull align 8 dereferenceable(192) %this)
  br label %while.cond, !llvm.loop !10

if.then.i:                                        ; preds = %while.cond
  tail call void @_ZN6google8protobuf2io9Tokenizer8NextCharEv(ptr noundef nonnull align 8 dereferenceable(192) %this)
  br label %_ZN6google8protobuf2io9Tokenizer10TryConsumeEc.exit

_ZN6google8protobuf2io9Tokenizer10TryConsumeEc.exit: ; preds = %while.cond, %if.then.i
  br i1 %cmp.not, label %if.end8, label %if.then7

if.then7:                                         ; preds = %_ZN6google8protobuf2io9Tokenizer10TryConsumeEc.exit
  %buffer_pos_.i3 = getelementptr inbounds nuw i8, ptr %this, i64 148
  %2 = load i32, ptr %buffer_pos_.i3, align 4
  %record_start_.i4 = getelementptr inbounds nuw i8, ptr %this, i64 176
  %3 = load i32, ptr %record_start_.i4, align 8
  %cmp.not.i = icmp eq i32 %2, %3
  br i1 %cmp.not.i, label %_ZN6google8protobuf2io9Tokenizer13StopRecordingEv.exit, label %if.then.i5

if.then.i5:                                       ; preds = %if.then7
  %record_target_.i6 = getelementptr inbounds nuw i8, ptr %this, i64 168
  %4 = load ptr, ptr %record_target_.i6, align 8
  %buffer_.i = getelementptr inbounds nuw i8, ptr %this, i64 136
  %5 = load ptr, ptr %buffer_.i, align 8
  %idx.ext.i = sext i32 %3 to i64
  %add.ptr.i = getelementptr inbounds i8, ptr %5, i64 %idx.ext.i
  %sub.i = sub nsw i32 %2, %3
  %conv.i = sext i32 %sub.i to i64
  %call.i = tail call noundef nonnull align 8 dereferenceable(32) ptr @_ZNSt7__cxx1112basic_stringIcSt11char_traitsIcESaIcEE6appendEPKcm(ptr noundef nonnull align 8 dereferenceable(32) %4, ptr noundef %add.ptr.i, i64 noundef %conv.i)
  br label %_ZN6google8protobuf2io9Tokenizer13StopRecordingEv.exit

_ZN6google8protobuf2io9Tokenizer13StopRecordingEv.exit: ; preds = %if.then7, %if.then.i5
  %record_target_5.i = getelementptr inbounds nuw i8, ptr %this, i64 168
  store ptr null, ptr %record_target_5.i, align 8
  store i32 -1, ptr %record_start_.i4, align 8
  br label %if.end8

if.end8:                                          ; preds = %_ZN6google8protobuf2io9Tokenizer13StopRecordingEv.exit, %_ZN6google8protobuf2io9Tokenizer10TryConsumeEc.exit
  ret void
}